target datalayout = "e-m:e-p270:32:32-p271:32:32-p272:64:64-i64:64-i128:128-f80:128-n8:16:32:64-S128"
target triple = "x86_64-pc-linux-gnu"

%struct.UserOpts = type { i8, i8, i8, i32, i32, ptr, ptr }
%struct.FileNameMap = type { ptr, ptr, ptr, ptr, i32, i32, ptr, ptr }
%struct.stat = type { i64, i64, i64, i32, i32, i32, i32, i64, i64, i64, i64, %struct.timespec, %struct.timespec, %struct.timespec, [3 x i64] }
%struct.timespec = type { i64, i64 }

@user_opts = external global %struct.UserOpts, align 8
@.str.7 = private unnamed_addr constant [4 x i8] c"_vm\00", align 1
@.str.8 = private unnamed_addr constant [4 x i8] c".%d\00", align 1
@.str.9 = private unnamed_addr constant [15 x i8] c"%s%s/%u/%u%s%s\00", align 1
@.str.10 = private unnamed_addr constant [67 x i8] c"error while checking for file existence \22%s.%s\22 (\22%s\22 to \22%s\22): %m\00", align 1
@.str.11 = private unnamed_addr constant [3 x i8] c"%s\00", align 1
@.str.12 = private unnamed_addr constant [23 x i8] c"rewriting \22%s\22 to \22%s\22\00", align 1
@.str.13 = private unnamed_addr constant [21 x i8] c"cloning \22%s\22 to \22%s\22\00", align 1
@.str.14 = private unnamed_addr constant [21 x i8] c"copying \22%s\22 to \22%s\22\00", align 1
@.str.15 = private unnamed_addr constant [42 x i8] c"copying \22%s\22 to \22%s\22 with copy_file_range\00", align 1
@.str.16 = private unnamed_addr constant [21 x i8] c"linking \22%s\22 to \22%s\22\00", align 1

; Function Attrs: nounwind uwtable
define internal void @transfer_relfile(ptr noundef %0, ptr noundef %1, i1 noundef zeroext %2) #0 {
  %4 = alloca ptr, align 8
  %5 = alloca ptr, align 8
  %6 = alloca i8, align 1
  %7 = alloca [1024 x i8], align 16
  %8 = alloca [1024 x i8], align 16
  %9 = alloca i32, align 4
  %10 = alloca [65 x i8], align 16
  %11 = alloca %struct.stat, align 8
  %12 = alloca i32, align 4
  store ptr %0, ptr %4, align 8
  store ptr %1, ptr %5, align 8
  %13 = zext i1 %2 to i8
  store i8 %13, ptr %6, align 1
  call void @llvm.lifetime.start.p0(i64 1024, ptr %7) #7
  call void @llvm.lifetime.start.p0(i64 1024, ptr %8) #7
  call void @llvm.lifetime.start.p0(i64 4, ptr %9) #7
  call void @llvm.lifetime.start.p0(i64 65, ptr %10) #7
  call void @llvm.lifetime.start.p0(i64 144, ptr %11) #7
  store i32 0, ptr %9, align 4
  br label %14

14:                                               ; preds = %157, %3
  %15 = load i32, ptr %9, align 4
  %16 = icmp eq i32 %15, 0
  br i1 %16, label %17, label %19

17:                                               ; preds = %14
  %18 = getelementptr inbounds [65 x i8], ptr %10, i64 0, i64 0
  store i8 0, ptr %18, align 16
  br label %23

19:                                               ; preds = %14
  %20 = getelementptr inbounds [65 x i8], ptr %10, i64 0, i64 0
  %21 = load i32, ptr %9, align 4
  %22 = call i32 (ptr, i64, ptr, ...) @pg_snprintf(ptr noundef %20, i64 noundef 65, ptr noundef @.str.8, i32 noundef %21)
  br label %23

23:                                               ; preds = %19, %17
  %24 = getelementptr inbounds [1024 x i8], ptr %7, i64 0, i64 0
  %25 = load ptr, ptr %4, align 8
  %26 = getelementptr inbounds nuw %struct.FileNameMap, ptr %25, i32 0, i32 0
  %27 = load ptr, ptr %26, align 8
  %28 = load ptr, ptr %4, align 8
  %29 = getelementptr inbounds nuw %struct.FileNameMap, ptr %28, i32 0, i32 2
  %30 = load ptr, ptr %29, align 8
  %31 = load ptr, ptr %4, align 8
  %32 = getelementptr inbounds nuw %struct.FileNameMap, ptr %31, i32 0, i32 4
  %33 = load i32, ptr %32, align 8
  %34 = load ptr, ptr %4, align 8
  %35 = getelementptr inbounds nuw %struct.FileNameMap, ptr %34, i32 0, i32 5
  %36 = load i32, ptr %35, align 4
  %37 = load ptr, ptr %5, align 8
  %38 = getelementptr inbounds [65 x i8], ptr %10, i64 0, i64 0
  %39 = call i32 (ptr, i64, ptr, ...) @pg_snprintf(ptr noundef %24, i64 noundef 1024, ptr noundef @.str.9, ptr noundef %27, ptr noundef %30, i32 noundef %33, i32 noundef %36, ptr noundef %37, ptr noundef %38)
  %40 = getelementptr inbounds [1024 x i8], ptr %8, i64 0, i64 0
  %41 = load ptr, ptr %4, align 8
  %42 = getelementptr inbounds nuw %struct.FileNameMap, ptr %41, i32 0, i32 1
  %43 = load ptr, ptr %42, align 8
  %44 = load ptr, ptr %4, align 8
  %45 = getelementptr inbounds nuw %struct.FileNameMap, ptr %44, i32 0, i32 3
  %46 = load ptr, ptr %45, align 8
  %47 = load ptr, ptr %4, align 8
  %48 = getelementptr inbounds nuw %struct.FileNameMap, ptr %47, i32 0, i32 4
  %49 = load i32, ptr %48, align 8
  %50 = load ptr, ptr %4, align 8
  %51 = getelementptr inbounds nuw %struct.FileNameMap, ptr %50, i32 0, i32 5
  %52 = load i32, ptr %51, align 4
  %53 = load ptr, ptr %5, align 8
  %54 = getelementptr inbounds [65 x i8], ptr %10, i64 0, i64 0
  %55 = call i32 (ptr, i64, ptr, ...) @pg_snprintf(ptr noundef %40, i64 noundef 1024, ptr noundef @.str.9, ptr noundef %43, ptr noundef %46, i32 noundef %49, i32 noundef %52, ptr noundef %53, ptr noundef %54)
  %56 = load ptr, ptr %5, align 8
  %57 = getelementptr inbounds i8, ptr %56, i64 0
  %58 = load i8, ptr %57, align 1
  %59 = sext i8 %58 to i32
  %60 = icmp ne i32 %59, 0
  br i1 %60, label %64, label %61

61:                                               ; preds = %23
  %62 = load i32, ptr %9, align 4
  %63 = icmp ne i32 %62, 0
  br i1 %63, label %64, label %88

64:                                               ; preds = %61, %23
  %65 = getelementptr inbounds [1024 x i8], ptr %7, i64 0, i64 0
  %66 = call i32 @stat(ptr noundef %65, ptr noundef %11) #7
  %67 = icmp ne i32 %66, 0
  br i1 %67, label %68, label %82

68:                                               ; preds = %64
  %69 = call ptr @__errno_location() #10
  %70 = load i32, ptr %69, align 4
  %71 = icmp eq i32 %70, 2
  br i1 %71, label %72, label %73

72:                                               ; preds = %68
  store i32 1, ptr %12, align 4
  br label %160

73:                                               ; preds = %68
  %74 = load ptr, ptr %4, align 8
  %75 = getelementptr inbounds nuw %struct.FileNameMap, ptr %74, i32 0, i32 6
  %76 = load ptr, ptr %75, align 8
  %77 = load ptr, ptr %4, align 8
  %78 = getelementptr inbounds nuw %struct.FileNameMap, ptr %77, i32 0, i32 7
  %79 = load ptr, ptr %78, align 8
  %80 = getelementptr inbounds [1024 x i8], ptr %7, i64 0, i64 0
  %81 = getelementptr inbounds [1024 x i8], ptr %8, i64 0, i64 0
  call void (ptr, ...) @pg_fatal(ptr noundef @.str.10, ptr noundef %76, ptr noundef %79, ptr noundef %80, ptr noundef %81) #9
  unreachable

82:                                               ; preds = %64
  %83 = getelementptr inbounds nuw %struct.stat, ptr %11, i32 0, i32 8
  %84 = load i64, ptr %83, align 8
  %85 = icmp eq i64 %84, 0
  br i1 %85, label %86, label %87

86:                                               ; preds = %82
  store i32 1, ptr %12, align 4
  br label %160

87:                                               ; preds = %82
  br label %88

88:                                               ; preds = %87, %61
  %89 = getelementptr inbounds [1024 x i8], ptr %8, i64 0, i64 0
  %90 = call i32 @unlink(ptr noundef %89) #7
  %91 = getelementptr inbounds [1024 x i8], ptr %7, i64 0, i64 0
  call void (i32, ptr, ...) @pg_log(i32 noundef 1, ptr noundef @.str.11, ptr noundef %91)
  %92 = load i8, ptr %6, align 1, !range !9, !noundef !10
  %93 = trunc i8 %92 to i1
  br i1 %93, label %94, label %109

94:                                               ; preds = %88
  %95 = load ptr, ptr %5, align 8
  %96 = call i32 @strcmp(ptr noundef %95, ptr noundef @.str.7) #8
  %97 = icmp eq i32 %96, 0
  br i1 %97, label %98, label %109

98:                                               ; preds = %94
  %99 = getelementptr inbounds [1024 x i8], ptr %7, i64 0, i64 0
  %100 = getelementptr inbounds [1024 x i8], ptr %8, i64 0, i64 0
  call void (i32, ptr, ...) @pg_log(i32 noundef 0, ptr noundef @.str.12, ptr noundef %99, ptr noundef %100)
  %101 = getelementptr inbounds [1024 x i8], ptr %7, i64 0, i64 0
  %102 = getelementptr inbounds [1024 x i8], ptr %8, i64 0, i64 0
  %103 = load ptr, ptr %4, align 8
  %104 = getelementptr inbounds nuw %struct.FileNameMap, ptr %103, i32 0, i32 6
  %105 = load ptr, ptr %104, align 8
  %106 = load ptr, ptr %4, align 8
  %107 = getelementptr inbounds nuw %struct.FileNameMap, ptr %106, i32 0, i32 7
  %108 = load ptr, ptr %107, align 8
  call void @rewriteVisibilityMap(ptr noundef %101, ptr noundef %102, ptr noundef %105, ptr noundef %108)
  br label %156

109:                                              ; preds = %94, %88
  %110 = load i32, ptr getelementptr inbounds nuw (%struct.UserOpts, ptr @user_opts, i32 0, i32 3), align 4
  switch i32 %110, label %155 [
    i32 0, label %111
    i32 1, label %122
    i32 2, label %133
    i32 3, label %144
  ]

111:                                              ; preds = %109
  %112 = getelementptr inbounds [1024 x i8], ptr %7, i64 0, i64 0
  %113 = getelementptr inbounds [1024 x i8], ptr %8, i64 0, i64 0
  call void (i32, ptr, ...) @pg_log(i32 noundef 0, ptr noundef @.str.13, ptr noundef %112, ptr noundef %113)
  %114 = getelementptr inbounds [1024 x i8], ptr %7, i64 0, i64 0
  %115 = getelementptr inbounds [1024 x i8], ptr %8, i64 0, i64 0
  %116 = load ptr, ptr %4, align 8
  %117 = getelementptr inbounds nuw %struct.FileNameMap, ptr %116, i32 0, i32 6
  %118 = load ptr, ptr %117, align 8
  %119 = load ptr, ptr %4, align 8
  %120 = getelementptr inbounds nuw %struct.FileNameMap, ptr %119, i32 0, i32 7
  %121 = load ptr, ptr %120, align 8
  call void @cloneFile(ptr noundef %114, ptr noundef %115, ptr noundef %118, ptr noundef %121)
  br label %155

122:                                              ; preds = %109
  %123 = getelementptr inbounds [1024 x i8], ptr %7, i64 0, i64 0
  %124 = getelementptr inbounds [1024 x i8], ptr %8, i64 0, i64 0
  call void (i32, ptr, ...) @pg_log(i32 noundef 0, ptr noundef @.str.14, ptr noundef %123, ptr noundef %124)
  %125 = getelementptr inbounds [1024 x i8], ptr %7, i64 0, i64 0
  %126 = getelementptr inbounds [1024 x i8], ptr %8, i64 0, i64 0
  %127 = load ptr, ptr %4, align 8
  %128 = getelementptr inbounds nuw %struct.FileNameMap, ptr %127, i32 0, i32 6
  %129 = load ptr, ptr %128, align 8
  %130 = load ptr, ptr %4, align 8
  %131 = getelementptr inbounds nuw %struct.FileNameMap, ptr %130, i32 0, i32 7
  %132 = load ptr, ptr %131, align 8
  call void @copyFile(ptr noundef %125, ptr noundef %126, ptr noundef %129, ptr noundef %132)
  br label %155

133:                                              ; preds = %109
  %134 = getelementptr inbounds [1024 x i8], ptr %7, i64 0, i64 0
  %135 = getelementptr inbounds [1024 x i8], ptr %8, i64 0, i64 0
  call void (i32, ptr, ...) @pg_log(i32 noundef 0, ptr noundef @.str.15, ptr noundef %134, ptr noundef %135)
  %136 = getelementptr inbounds [1024 x i8], ptr %7, i64 0, i64 0
  %137 = getelementptr inbounds [1024 x i8], ptr %8, i64 0, i64 0
  %138 = load ptr, ptr %4, align 8
  %139 = getelementptr inbounds nuw %struct.FileNameMap, ptr %138, i32 0, i32 6
  %140 = load ptr, ptr %139, align 8
  %141 = load ptr, ptr %4, align 8
  %142 = getelementptr inbounds nuw %struct.FileNameMap, ptr %141, i32 0, i32 7
  %143 = load ptr, ptr %142, align 8
  call void @copyFileByRange(ptr noundef %136, ptr noundef %137, ptr noundef %140, ptr noundef %143)
  br label %155

144:                                              ; preds = %109
  %145 = getelementptr inbounds [1024 x i8], ptr %7, i64 0, i64 0
  %146 = getelementptr inbounds [1024 x i8], ptr %8, i64 0, i64 0
  call void (i32, ptr, ...) @pg_log(i32 noundef 0, ptr noundef @.str.16, ptr noundef %145, ptr noundef %146)
  %147 = getelementptr inbounds [1024 x i8], ptr %7, i64 0, i64 0
  %148 = getelementptr inbounds [1024 x i8], ptr %8, i64 0, i64 0
  %149 = load ptr, ptr %4, align 8
  %150 = getelementptr inbounds nuw %struct.FileNameMap, ptr %149, i32 0, i32 6
  %151 = load ptr, ptr %150, align 8
  %152 = load ptr, ptr %4, align 8
  %153 = getelementptr inbounds nuw %struct.FileNameMap, ptr %152, i32 0, i32 7
  %154 = load ptr, ptr %153, align 8
  call void @linkFile(ptr noundef %147, ptr noundef %148, ptr noundef %151, ptr noundef %154)
  br label %155

155:                                              ; preds = %144, %109, %133, %122, %111
  br label %156

156:                                              ; preds = %155, %98
  br label %157

157:                                              ; preds = %156
  %158 = load i32, ptr %9, align 4
  %159 = add i32 %158, 1
  store i32 %159, ptr %9, align 4
  br label %14

160:                                              ; preds = %86, %72
  call void @llvm.lifetime.end.p0(i64 144, ptr %11) #7
  call void @llvm.lifetime.end.p0(i64 65, ptr %10) #7
  call void @llvm.lifetime.end.p0(i64 4, ptr %9) #7
  call void @llvm.lifetime.end.p0(i64 1024, ptr %8) #7
  call void @llvm.lifetime.end.p0(i64 1024, ptr %7) #7
  ret void
}