; Function Attrs: nounwind uwtable
define internal fastcc void @transfer_relfile(ptr noundef readonly captures(none) %0, ptr noundef %1, i1 noundef zeroext %2) unnamed_addr #0 {
  %4 = alloca [1024 x i8], align 16
  %5 = alloca [1024 x i8], align 16
  %6 = alloca [65 x i8], align 16
  %7 = alloca %struct.stat, align 8
  call void @llvm.lifetime.start.p0(i64 1024, ptr nonnull %4) #7
  call void @llvm.lifetime.start.p0(i64 1024, ptr nonnull %5) #7
  call void @llvm.lifetime.start.p0(i64 65, ptr nonnull %6) #7
  call void @llvm.lifetime.start.p0(i64 144, ptr nonnull %7) #7
  %8 = getelementptr inbounds nuw i8, ptr %0, i64 16
  %9 = getelementptr inbounds nuw i8, ptr %0, i64 32
  %10 = getelementptr inbounds nuw i8, ptr %0, i64 36
  %11 = getelementptr inbounds nuw i8, ptr %0, i64 8
  %12 = getelementptr inbounds nuw i8, ptr %0, i64 24
  %13 = getelementptr inbounds nuw i8, ptr %7, i64 48
  %14 = getelementptr inbounds nuw i8, ptr %0, i64 40
  %15 = getelementptr inbounds nuw i8, ptr %0, i64 48
  br label %16

16:                                               ; preds = %69, %3
  %.0 = phi i32 [ 0, %3 ], [ %70, %69 ]
  %17 = icmp eq i32 %.0, 0
  br i1 %17, label %18, label %19

18:                                               ; preds = %16
  store i8 0, ptr %6, align 16
  br label %21

19:                                               ; preds = %16
  %20 = call i32 (ptr, i64, ptr, ...) @pg_snprintf(ptr noundef nonnull %6, i64 noundef 65, ptr noundef nonnull @.str.8, i32 noundef %.0) #7
  br label %21

21:                                               ; preds = %19, %18
  %22 = load ptr, ptr %0, align 8
  %23 = load ptr, ptr %8, align 8
  %24 = load i32, ptr %9, align 8
  %25 = load i32, ptr %10, align 4
  %26 = call i32 (ptr, i64, ptr, ...) @pg_snprintf(ptr noundef nonnull %4, i64 noundef 1024, ptr noundef nonnull @.str.9, ptr noundef %22, ptr noundef %23, i32 noundef %24, i32 noundef %25, ptr noundef %1, ptr noundef nonnull %6) #7
  %27 = load ptr, ptr %11, align 8
  %28 = load ptr, ptr %12, align 8
  %29 = load i32, ptr %9, align 8
  %30 = load i32, ptr %10, align 4
  %31 = call i32 (ptr, i64, ptr, ...) @pg_snprintf(ptr noundef nonnull %5, i64 noundef 1024, ptr noundef nonnull @.str.9, ptr noundef %27, ptr noundef %28, i32 noundef %29, i32 noundef %30, ptr noundef %1, ptr noundef nonnull %6) #7
  %32 = load i8, ptr %1, align 1
  %33 = icmp ne i8 %32, 0
  %34 = icmp ne i32 %.0, 0
  %or.cond = or i1 %34, %33
  br i1 %or.cond, label %35, label %47

35:                                               ; preds = %21
  %36 = call i32 @stat(ptr noundef nonnull %4, ptr noundef nonnull %7) #7
  %.not = icmp eq i32 %36, 0
  br i1 %.not, label %44, label %37

37:                                               ; preds = %35
  %38 = tail call ptr @__errno_location() #10
  %39 = load i32, ptr %38, align 4
  %40 = icmp eq i32 %39, 2
  br i1 %40, label %.loopexit, label %41

41:                                               ; preds = %37
  %42 = load ptr, ptr %14, align 8
  %43 = load ptr, ptr %15, align 8
  call void (ptr, ...) @pg_fatal(ptr noundef nonnull @.str.10, ptr noundef %42, ptr noundef %43, ptr noundef nonnull %4, ptr noundef nonnull %5) #9
  unreachable

44:                                               ; preds = %35
  %45 = load i64, ptr %13, align 8
  %46 = icmp eq i64 %45, 0
  br i1 %46, label %.loopexit, label %47

47:                                               ; preds = %44, %21
  %48 = call i32 @unlink(ptr noundef nonnull %5) #7
  call void (i32, ptr, ...) @pg_log(i32 noundef 1, ptr noundef nonnull @.str.11, ptr noundef nonnull %4) #7
  br i1 %2, label %49, label %55

49:                                               ; preds = %47
  %50 = call i32 @strcmp(ptr noundef nonnull dereferenceable(1) %1, ptr noundef nonnull dereferenceable(4) @.str.7) #8
  %51 = icmp eq i32 %50, 0
  br i1 %51, label %52, label %55

52:                                               ; preds = %49
  call void (i32, ptr, ...) @pg_log(i32 noundef 0, ptr noundef nonnull @.str.12, ptr noundef nonnull %4, ptr noundef nonnull %5) #7
  %53 = load ptr, ptr %14, align 8
  %54 = load ptr, ptr %15, align 8
  call void @rewriteVisibilityMap(ptr noundef nonnull %4, ptr noundef nonnull %5, ptr noundef %53, ptr noundef %54) #7
  br label %69

55:                                               ; preds = %49, %47
  %56 = load i32, ptr getelementptr inbounds nuw (i8, ptr @user_opts, i64 4), align 4
  switch i32 %56, label %69 [
    i32 0, label %57
    i32 1, label %60
    i32 2, label %63
    i32 3, label %66
  ]

57:                                               ; preds = %55
  call void (i32, ptr, ...) @pg_log(i32 noundef 0, ptr noundef nonnull @.str.13, ptr noundef nonnull %4, ptr noundef nonnull %5) #7
  %58 = load ptr, ptr %14, align 8
  %59 = load ptr, ptr %15, align 8
  call void @cloneFile(ptr noundef nonnull %4, ptr noundef nonnull %5, ptr noundef %58, ptr noundef %59) #7
  br label %69

60:                                               ; preds = %55
  call void (i32, ptr, ...) @pg_log(i32 noundef 0, ptr noundef nonnull @.str.14, ptr noundef nonnull %4, ptr noundef nonnull %5) #7
  %61 = load ptr, ptr %14, align 8
  %62 = load ptr, ptr %15, align 8
  call void @copyFile(ptr noundef nonnull %4, ptr noundef nonnull %5, ptr noundef %61, ptr noundef %62) #7
  br label %69

63:                                               ; preds = %55
  call void (i32, ptr, ...) @pg_log(i32 noundef 0, ptr noundef nonnull @.str.15, ptr noundef nonnull %4, ptr noundef nonnull %5) #7
  %64 = load ptr, ptr %14, align 8
  %65 = load ptr, ptr %15, align 8
  call void @copyFileByRange(ptr noundef nonnull %4, ptr noundef nonnull %5, ptr noundef %64, ptr noundef %65) #7
  br label %69

66:                                               ; preds = %55
  call void (i32, ptr, ...) @pg_log(i32 noundef 0, ptr noundef nonnull @.str.16, ptr noundef nonnull %4, ptr noundef nonnull %5) #7
  %67 = load ptr, ptr %14, align 8
  %68 = load ptr, ptr %15, align 8
  call void @linkFile(ptr noundef nonnull %4, ptr noundef nonnull %5, ptr noundef %67, ptr noundef %68) #7
  br label %69

69:                                               ; preds = %52, %66, %63, %60, %57, %55
  %70 = add i32 %.0, 1
  br label %16

.loopexit:                                        ; preds = %44, %37
  call void @llvm.lifetime.end.p0(i64 144, ptr nonnull %7) #7
  call void @llvm.lifetime.end.p0(i64 65, ptr nonnull %6) #7
  call void @llvm.lifetime.end.p0(i64 1024, ptr nonnull %5) #7
  call void @llvm.lifetime.end.p0(i64 1024, ptr nonnull %4) #7
  ret void
}